; Function Attrs: nounwind uwtable
define void @Gia_ManPrintCone(ptr noundef %0, ptr noundef %1, ptr noundef readonly captures(none) %2, i32 noundef %3, ptr noundef initializes((4, 8)) %4) local_unnamed_addr #2 {
  %6 = getelementptr inbounds nuw i8, ptr %4, i64 4
  store i32 0, ptr %6, align 4
  %7 = icmp sgt i32 %3, 0
  br i1 %7, label %.lr.ph, label %._crit_edge

.lr.ph:                                           ; preds = %5
  %.phi.trans.insert.i = getelementptr inbounds nuw i8, ptr %4, i64 8
  %wide.trip.count = zext nneg i32 %3 to i64
  br label %8

thread-pre-split:                                 ; preds = %Vec_IntPush.exit
  %.pr = load i32, ptr %6, align 4
  br label %8

8:                                                ; preds = %thread-pre-split, %.lr.ph
  %9 = phi i32 [ %.pr, %thread-pre-split ], [ 0, %.lr.ph ]
  %indvars.iv = phi i64 [ %indvars.iv.next, %thread-pre-split ], [ 0, %.lr.ph ]
  %10 = getelementptr inbounds nuw i32, ptr %2, i64 %indvars.iv
  %11 = load i32, ptr %10, align 4
  %12 = load i32, ptr %4, align 8
  %13 = icmp eq i32 %9, %12
  br i1 %13, label %14, label %.Vec_IntGrow.exit10_crit_edge.i

.Vec_IntGrow.exit10_crit_edge.i:                  ; preds = %8
  %.pre.i = load ptr, ptr %.phi.trans.insert.i, align 8
  br label %Vec_IntPush.exit

14:                                               ; preds = %8
  %15 = icmp slt i32 %9, 16
  br i1 %15, label %16, label %23

16:                                               ; preds = %14
  %17 = load ptr, ptr %.phi.trans.insert.i, align 8
  %.not9.i.i = icmp eq ptr %17, null
  br i1 %.not9.i.i, label %20, label %18

18:                                               ; preds = %16
  %19 = tail call dereferenceable_or_null(64) ptr @realloc(ptr noundef nonnull %17, i64 noundef 64) #39
  br label %Vec_IntGrow.exit.i

20:                                               ; preds = %16
  %21 = tail call noalias dereferenceable_or_null(64) ptr @malloc(i64 noundef 64) #40
  br label %Vec_IntGrow.exit.i

Vec_IntGrow.exit.i:                               ; preds = %20, %18
  %22 = phi ptr [ %19, %18 ], [ %21, %20 ]
  store ptr %22, ptr %.phi.trans.insert.i, align 8
  store i32 16, ptr %4, align 8
  br label %Vec_IntPush.exit

23:                                               ; preds = %14
  %24 = shl nuw nsw i32 %9, 1
  %25 = load ptr, ptr %.phi.trans.insert.i, align 8
  %.not9.i9.i = icmp eq ptr %25, null
  %26 = zext nneg i32 %24 to i64
  %27 = shl nuw nsw i64 %26, 2
  br i1 %.not9.i9.i, label %30, label %28

28:                                               ; preds = %23
  %29 = tail call ptr @realloc(ptr noundef nonnull %25, i64 noundef %27) #39
  br label %32

30:                                               ; preds = %23
  %31 = tail call noalias ptr @malloc(i64 noundef %27) #40
  br label %32

32:                                               ; preds = %30, %28
  %33 = phi ptr [ %29, %28 ], [ %31, %30 ]
  store ptr %33, ptr %.phi.trans.insert.i, align 8
  store i32 %24, ptr %4, align 8
  br label %Vec_IntPush.exit

Vec_IntPush.exit:                                 ; preds = %.Vec_IntGrow.exit10_crit_edge.i, %Vec_IntGrow.exit.i, %32
  %34 = phi ptr [ %.pre.i, %.Vec_IntGrow.exit10_crit_edge.i ], [ %33, %32 ], [ %22, %Vec_IntGrow.exit.i ]
  %35 = load i32, ptr %6, align 4
  %36 = add nsw i32 %35, 1
  store i32 %36, ptr %6, align 4
  %37 = sext i32 %35 to i64
  %38 = getelementptr inbounds i32, ptr %34, i64 %37
  store i32 %11, ptr %38, align 4
  %indvars.iv.next = add nuw nsw i64 %indvars.iv, 1
  %exitcond.not = icmp eq i64 %indvars.iv.next, %wide.trip.count
  br i1 %exitcond.not, label %._crit_edge, label %thread-pre-split, !llvm.loop !56

._crit_edge:                                      ; preds = %Vec_IntPush.exit, %5
  tail call void @Gia_ManPrintCollect_rec(ptr noundef %0, ptr noundef %1, ptr noundef nonnull %4)
  %39 = getelementptr i8, ptr %0, i64 32
  %.val20 = load ptr, ptr %39, align 8
  %40 = ptrtoint ptr %1 to i64
  %41 = ptrtoint ptr %.val20 to i64
  %42 = sub i64 %40, %41
  %43 = sdiv exact i64 %42, 12
  %44 = trunc i64 %43 to i32
  %45 = tail call i32 (ptr, ...) @printf(ptr noundef nonnull dereferenceable(1) @.str.22, i32 noundef %44)
  %.val2224 = load i32, ptr %6, align 4
  %46 = icmp sgt i32 %.val2224, 0
  br i1 %46, label %.lr.ph27, label %.critedge

.lr.ph27:                                         ; preds = %._crit_edge
  %47 = getelementptr i8, ptr %4, i64 8
  br label %48

48:                                               ; preds = %.lr.ph27, %49
  %indvars.iv30 = phi i64 [ 0, %.lr.ph27 ], [ %indvars.iv.next31, %49 ]
  %.val = load ptr, ptr %39, align 8
  %.not = icmp eq ptr %.val, null
  br i1 %.not, label %.critedge, label %49

49:                                               ; preds = %48
  %.val21 = load ptr, ptr %47, align 8
  %50 = getelementptr inbounds nuw i32, ptr %.val21, i64 %indvars.iv30
  %51 = load i32, ptr %50, align 4
  %52 = sext i32 %51 to i64
  %53 = getelementptr inbounds %struct.Gia_Obj_t_, ptr %.val, i64 %52
  tail call void @Gia_ObjPrint(ptr noundef nonnull %0, ptr noundef nonnull %53)
  %indvars.iv.next31 = add nuw nsw i64 %indvars.iv30, 1
  %.val22 = load i32, ptr %6, align 4
  %54 = sext i32 %.val22 to i64
  %55 = icmp slt i64 %indvars.iv.next31, %54
  br i1 %55, label %48, label %.critedge, !llvm.loop !57

.critedge:                                        ; preds = %48, %49, %._crit_edge
  ret void
}